target datalayout = "e-m:e-p270:32:32-p271:32:32-p272:64:64-i64:64-i128:128-f80:128-n8:16:32:64-S128"
target triple = "x86_64-unknown-linux-gnu"

%"class.OpenImageIO_v2_6_0::ImageInput" = type { ptr, %"class.OpenImageIO_v2_6_0::ImageSpec", %"class.std::unique_ptr" }
%"class.OpenImageIO_v2_6_0::ImageSpec" = type { i32, i32, i32, i32, i32, i32, i32, i32, i32, i32, i32, i32, i32, i32, i32, i32, %"struct.OpenImageIO_v2_6_0::TypeDesc", %"class.std::vector", %"class.std::vector.0", i32, i32, i8, %"class.OpenImageIO_v2_6_0::ParamValueList" }
%"struct.OpenImageIO_v2_6_0::TypeDesc" = type { i8, i8, i8, i8, i32 }
%"class.std::vector" = type { %"struct.std::_Vector_base" }
%"struct.std::_Vector_base" = type { %"struct.std::_Vector_base<OpenImageIO_v2_6_0::TypeDesc, std::allocator<OpenImageIO_v2_6_0::TypeDesc>>::_Vector_impl" }
%"struct.std::_Vector_base<OpenImageIO_v2_6_0::TypeDesc, std::allocator<OpenImageIO_v2_6_0::TypeDesc>>::_Vector_impl" = type { %"struct.std::_Vector_base<OpenImageIO_v2_6_0::TypeDesc, std::allocator<OpenImageIO_v2_6_0::TypeDesc>>::_Vector_impl_data" }
%"struct.std::_Vector_base<OpenImageIO_v2_6_0::TypeDesc, std::allocator<OpenImageIO_v2_6_0::TypeDesc>>::_Vector_impl_data" = type { ptr, ptr, ptr }
%"class.std::vector.0" = type { %"struct.std::_Vector_base.1" }
%"struct.std::_Vector_base.1" = type { %"struct.std::_Vector_base<std::__cxx11::basic_string<char>, std::allocator<std::__cxx11::basic_string<char>>>::_Vector_impl" }
%"struct.std::_Vector_base<std::__cxx11::basic_string<char>, std::allocator<std::__cxx11::basic_string<char>>>::_Vector_impl" = type { %"struct.std::_Vector_base<std::__cxx11::basic_string<char>, std::allocator<std::__cxx11::basic_string<char>>>::_Vector_impl_data" }
%"struct.std::_Vector_base<std::__cxx11::basic_string<char>, std::allocator<std::__cxx11::basic_string<char>>>::_Vector_impl_data" = type { ptr, ptr, ptr }
%"class.OpenImageIO_v2_6_0::ParamValueList" = type { %"class.std::vector.5" }
%"class.std::vector.5" = type { %"struct.std::_Vector_base.6" }
%"struct.std::_Vector_base.6" = type { %"struct.std::_Vector_base<OpenImageIO_v2_6_0::ParamValue, std::allocator<OpenImageIO_v2_6_0::ParamValue>>::_Vector_impl" }
%"struct.std::_Vector_base<OpenImageIO_v2_6_0::ParamValue, std::allocator<OpenImageIO_v2_6_0::ParamValue>>::_Vector_impl" = type { %"struct.std::_Vector_base<OpenImageIO_v2_6_0::ParamValue, std::allocator<OpenImageIO_v2_6_0::ParamValue>>::_Vector_impl_data" }
%"struct.std::_Vector_base<OpenImageIO_v2_6_0::ParamValue, std::allocator<OpenImageIO_v2_6_0::ParamValue>>::_Vector_impl_data" = type { ptr, ptr, ptr }
%"class.std::unique_ptr" = type { %"struct.std::__uniq_ptr_data" }
%"struct.std::__uniq_ptr_data" = type { %"class.std::__uniq_ptr_impl" }
%"class.std::__uniq_ptr_impl" = type { %"class.std::tuple" }
%"class.std::tuple" = type { %"struct.std::_Tuple_impl" }
%"struct.std::_Tuple_impl" = type { %"struct.std::_Tuple_impl.10", %"struct.std::_Head_base.11" }
%"struct.std::_Tuple_impl.10" = type { %"struct.std::_Head_base" }
%"struct.std::_Head_base" = type { ptr }
%"struct.std::_Head_base.11" = type { ptr }
%"class.OpenImageIO_v2_6_0::basic_string_view" = type { ptr, i64 }

@.str.9 = private unnamed_addr constant [8 x i8] c"Comment\00", align 1
@.str.10 = private unnamed_addr constant [8 x i8] c"History\00", align 1
@.str.11 = private unnamed_addr constant [9 x i8] c"Hierarch\00", align 1
@.str.18 = private unnamed_addr constant [9 x i8] c"DateTime\00", align 1

; Function Attrs: mustprogress nounwind uwtable
define linkonce_odr hidden void @_ZN18OpenImageIO_v2_6_017basic_string_viewIcSt11char_traitsIcEEC2ERKNSt7__cxx1112basic_stringIcS2_SaIcEEE(ptr noundef nonnull align 8 dereferenceable(16) %this, ptr noundef nonnull align 8 dereferenceable(32) %str) unnamed_addr #4 comdat align 2 {
entry:
  %this.addr = alloca ptr, align 8
  %str.addr = alloca ptr, align 8
  store ptr %this, ptr %this.addr, align 8
  store ptr %str, ptr %str.addr, align 8
  %this1 = load ptr, ptr %this.addr, align 8
  %m_chars = getelementptr inbounds %"class.OpenImageIO_v2_6_0::basic_string_view", ptr %this1, i32 0, i32 0
  %0 = load ptr, ptr %str.addr, align 8
  %call = call noundef ptr @_ZNKSt7__cxx1112basic_stringIcSt11char_traitsIcESaIcEE4dataEv(ptr noundef nonnull align 8 dereferenceable(32) %0) #3
  store ptr %call, ptr %m_chars, align 8
  %m_len = getelementptr inbounds %"class.OpenImageIO_v2_6_0::basic_string_view", ptr %this1, i32 0, i32 1
  %1 = load ptr, ptr %str.addr, align 8
  %call2 = call noundef i64 @_ZNKSt7__cxx1112basic_stringIcSt11char_traitsIcESaIcEE4sizeEv(ptr noundef nonnull align 8 dereferenceable(32) %1) #3
  store i64 %call2, ptr %m_len, align 8
  ret void
}

; Function Attrs: mustprogress nounwind uwtable
define linkonce_odr noundef zeroext i1 @_ZSteqIcSt11char_traitsIcESaIcEEbRKNSt7__cxx1112basic_stringIT_T0_T1_EEPKS5_(ptr noundef nonnull align 8 dereferenceable(32) %__lhs, ptr noundef %__rhs) #4 comdat {
entry:
  %__lhs.addr = alloca ptr, align 8
  %__rhs.addr = alloca ptr, align 8
  store ptr %__lhs, ptr %__lhs.addr, align 8
  store ptr %__rhs, ptr %__rhs.addr, align 8
  %0 = load ptr, ptr %__lhs.addr, align 8
  %1 = load ptr, ptr %__rhs.addr, align 8
  %call = call noundef i32 @_ZNKSt7__cxx1112basic_stringIcSt11char_traitsIcESaIcEE7compareEPKc(ptr noundef nonnull align 8 dereferenceable(32) %0, ptr noundef %1) #3
  %cmp = icmp eq i32 %call, 0
  ret i1 %cmp
}

; Function Attrs: mustprogress uwtable
define hidden void @_ZN18OpenImageIO_v2_6_09FitsInput11add_to_specERKNSt7__cxx1112basic_stringIcSt11char_traitsIcESaIcEEES8_(ptr noundef nonnull align 8 dereferenceable(480) %this, ptr noundef nonnull align 8 dereferenceable(32) %keyname, ptr noundef nonnull align 8 dereferenceable(32) %value) #6 align 2 {
entry:
  %this.addr = alloca ptr, align 8
  %keyname.addr = alloca ptr, align 8
  %value.addr = alloca ptr, align 8
  %speckey = alloca i8, align 1
  %agg.tmp = alloca %"class.OpenImageIO_v2_6_0::basic_string_view", align 8
  %agg.tmp12 = alloca %"class.OpenImageIO_v2_6_0::basic_string_view", align 8
  %isNumSign = alloca i8, align 1
  %val = alloca float, align 4
  %agg.tmp38 = alloca %"class.OpenImageIO_v2_6_0::basic_string_view", align 8
  %agg.tmp41 = alloca %"class.OpenImageIO_v2_6_0::basic_string_view", align 8
  %agg.tmp45 = alloca %"class.OpenImageIO_v2_6_0::basic_string_view", align 8
  %agg.tmp46 = alloca %"class.OpenImageIO_v2_6_0::basic_string_view", align 8
  store ptr %this, ptr %this.addr, align 8
  store ptr %keyname, ptr %keyname.addr, align 8
  store ptr %value, ptr %value.addr, align 8
  %this1 = load ptr, ptr %this.addr, align 8
  %0 = load ptr, ptr %keyname.addr, align 8
  %call = call noundef i64 @_ZNKSt7__cxx1112basic_stringIcSt11char_traitsIcESaIcEE4sizeEv(ptr noundef nonnull align 8 dereferenceable(32) %0) #3
  %tobool = icmp ne i64 %call, 0
  br i1 %tobool, label %lor.lhs.false, label %if.then

lor.lhs.false:                                    ; preds = %entry
  %1 = load ptr, ptr %value.addr, align 8
  %call2 = call noundef i64 @_ZNKSt7__cxx1112basic_stringIcSt11char_traitsIcESaIcEE4sizeEv(ptr noundef nonnull align 8 dereferenceable(32) %1) #3
  %tobool3 = icmp ne i64 %call2, 0
  br i1 %tobool3, label %if.end, label %if.then

if.then:                                          ; preds = %lor.lhs.false, %entry
  br label %if.end47

if.end:                                           ; preds = %lor.lhs.false
  %2 = load ptr, ptr %keyname.addr, align 8
  %call4 = call noundef zeroext i1 @_ZSteqIcSt11char_traitsIcESaIcEEbRKNSt7__cxx1112basic_stringIT_T0_T1_EEPKS5_(ptr noundef nonnull align 8 dereferenceable(32) %2, ptr noundef @.str.9)
  br i1 %call4, label %lor.end, label %lor.lhs.false5

lor.lhs.false5:                                   ; preds = %if.end
  %3 = load ptr, ptr %keyname.addr, align 8
  %call6 = call noundef zeroext i1 @_ZSteqIcSt11char_traitsIcESaIcEEbRKNSt7__cxx1112basic_stringIT_T0_T1_EEPKS5_(ptr noundef nonnull align 8 dereferenceable(32) %3, ptr noundef @.str.10)
  br i1 %call6, label %lor.end, label %lor.rhs

lor.rhs:                                          ; preds = %lor.lhs.false5
  %4 = load ptr, ptr %keyname.addr, align 8
  %call7 = call noundef zeroext i1 @_ZSteqIcSt11char_traitsIcESaIcEEbRKNSt7__cxx1112basic_stringIT_T0_T1_EEPKS5_(ptr noundef nonnull align 8 dereferenceable(32) %4, ptr noundef @.str.11)
  br label %lor.end

lor.end:                                          ; preds = %lor.rhs, %lor.lhs.false5, %if.end
  %5 = phi i1 [ true, %lor.lhs.false5 ], [ true, %if.end ], [ %call7, %lor.rhs ]
  %frombool = zext i1 %5 to i8
  store i8 %frombool, ptr %speckey, align 1
  %6 = load i8, ptr %speckey, align 1
  %tobool8 = trunc i8 %6 to i1
  br i1 %tobool8, label %if.then11, label %lor.lhs.false9

lor.lhs.false9:                                   ; preds = %lor.end
  %7 = load ptr, ptr %keyname.addr, align 8
  %call10 = call noundef zeroext i1 @_ZSteqIcSt11char_traitsIcESaIcEEbRKNSt7__cxx1112basic_stringIT_T0_T1_EEPKS5_(ptr noundef nonnull align 8 dereferenceable(32) %7, ptr noundef @.str.18)
  br i1 %call10, label %if.then11, label %if.end13

if.then11:                                        ; preds = %lor.lhs.false9, %lor.end
  %m_spec = getelementptr inbounds %"class.OpenImageIO_v2_6_0::ImageInput", ptr %this1, i32 0, i32 1
  %8 = load ptr, ptr %keyname.addr, align 8
  call void @_ZN18OpenImageIO_v2_6_017basic_string_viewIcSt11char_traitsIcEEC2ERKNSt7__cxx1112basic_stringIcS2_SaIcEEE(ptr noundef nonnull align 8 dereferenceable(16) %agg.tmp, ptr noundef nonnull align 8 dereferenceable(32) %8) #3
  %9 = load ptr, ptr %value.addr, align 8
  call void @_ZN18OpenImageIO_v2_6_017basic_string_viewIcSt11char_traitsIcEEC2ERKNSt7__cxx1112basic_stringIcS2_SaIcEEE(ptr noundef nonnull align 8 dereferenceable(16) %agg.tmp12, ptr noundef nonnull align 8 dereferenceable(32) %9) #3
  call void @_ZN18OpenImageIO_v2_6_09ImageSpec9attributeENS_17basic_string_viewIcSt11char_traitsIcEEES4_(ptr noundef nonnull align 8 dereferenceable(160) %m_spec, ptr noundef %agg.tmp, ptr noundef %agg.tmp12)
  br label %if.end47

if.end13:                                         ; preds = %lor.lhs.false9
  %10 = load ptr, ptr %value.addr, align 8
  %call14 = call noundef nonnull align 1 dereferenceable(1) ptr @_ZNKSt7__cxx1112basic_stringIcSt11char_traitsIcESaIcEEixEm(ptr noundef nonnull align 8 dereferenceable(32) %10, i64 noundef 0) #3
  %11 = load i8, ptr %call14, align 1
  %conv = sext i8 %11 to i32
  %cmp = icmp eq i32 %conv, 43
  br i1 %cmp, label %lor.end23, label %lor.lhs.false15

lor.lhs.false15:                                  ; preds = %if.end13
  %12 = load ptr, ptr %value.addr, align 8
  %call16 = call noundef nonnull align 1 dereferenceable(1) ptr @_ZNKSt7__cxx1112basic_stringIcSt11char_traitsIcESaIcEEixEm(ptr noundef nonnull align 8 dereferenceable(32) %12, i64 noundef 0) #3
  %13 = load i8, ptr %call16, align 1
  %conv17 = sext i8 %13 to i32
  %cmp18 = icmp eq i32 %conv17, 45
  br i1 %cmp18, label %lor.end23, label %lor.rhs19

lor.rhs19:                                        ; preds = %lor.lhs.false15
  %14 = load ptr, ptr %value.addr, align 8
  %call20 = call noundef nonnull align 1 dereferenceable(1) ptr @_ZNKSt7__cxx1112basic_stringIcSt11char_traitsIcESaIcEEixEm(ptr noundef nonnull align 8 dereferenceable(32) %14, i64 noundef 0) #3
  %15 = load i8, ptr %call20, align 1
  %conv21 = sext i8 %15 to i32
  %cmp22 = icmp eq i32 %conv21, 46
  br label %lor.end23

lor.end23:                                        ; preds = %lor.rhs19, %lor.lhs.false15, %if.end13
  %16 = phi i1 [ true, %lor.lhs.false15 ], [ true, %if.end13 ], [ %cmp22, %lor.rhs19 ]
  %frombool24 = zext i1 %16 to i8
  store i8 %frombool24, ptr %isNumSign, align 1
  %17 = load ptr, ptr %value.addr, align 8
  %call25 = call noundef nonnull align 1 dereferenceable(1) ptr @_ZNKSt7__cxx1112basic_stringIcSt11char_traitsIcESaIcEEixEm(ptr noundef nonnull align 8 dereferenceable(32) %17, i64 noundef 0) #3
  %18 = load i8, ptr %call25, align 1
  %conv26 = sext i8 %18 to i32
  %call27 = call i32 @isdigit(i32 noundef %conv26) #17
  %tobool28 = icmp ne i32 %call27, 0
  br i1 %tobool28, label %if.then31, label %lor.lhs.false29

lor.lhs.false29:                                  ; preds = %lor.end23
  %19 = load i8, ptr %isNumSign, align 1
  %tobool30 = trunc i8 %19 to i1
  br i1 %tobool30, label %if.then31, label %if.else43

if.then31:                                        ; preds = %lor.lhs.false29, %lor.end23
  %20 = load ptr, ptr %value.addr, align 8
  %call32 = call noundef float @_ZN18OpenImageIO_v2_6_07Strutil4stofERKNSt7__cxx1112basic_stringIcSt11char_traitsIcESaIcEEEPm(ptr noundef nonnull align 8 dereferenceable(32) %20, ptr noundef null)
  store float %call32, ptr %val, align 4
  %21 = load float, ptr %val, align 4
  %22 = load float, ptr %val, align 4
  %conv33 = fptosi float %22 to i32
  %conv34 = sitofp i32 %conv33 to float
  %cmp35 = fcmp oeq float %21, %conv34
  br i1 %cmp35, label %if.then36, label %if.else

if.then36:                                        ; preds = %if.then31
  %m_spec37 = getelementptr inbounds %"class.OpenImageIO_v2_6_0::ImageInput", ptr %this1, i32 0, i32 1
  %23 = load ptr, ptr %keyname.addr, align 8
  call void @_ZN18OpenImageIO_v2_6_017basic_string_viewIcSt11char_traitsIcEEC2ERKNSt7__cxx1112basic_stringIcS2_SaIcEEE(ptr noundef nonnull align 8 dereferenceable(16) %agg.tmp38, ptr noundef nonnull align 8 dereferenceable(32) %23) #3
  %24 = load float, ptr %val, align 4
  %conv39 = fptosi float %24 to i32
  call void @_ZN18OpenImageIO_v2_6_09ImageSpec9attributeENS_17basic_string_viewIcSt11char_traitsIcEEEi(ptr noundef nonnull align 8 dereferenceable(160) %m_spec37, ptr noundef %agg.tmp38, i32 noundef %conv39)
  br label %if.end42

if.else:                                          ; preds = %if.then31
  %m_spec40 = getelementptr inbounds %"class.OpenImageIO_v2_6_0::ImageInput", ptr %this1, i32 0, i32 1
  %25 = load ptr, ptr %keyname.addr, align 8
  call void @_ZN18OpenImageIO_v2_6_017basic_string_viewIcSt11char_traitsIcEEC2ERKNSt7__cxx1112basic_stringIcS2_SaIcEEE(ptr noundef nonnull align 8 dereferenceable(16) %agg.tmp41, ptr noundef nonnull align 8 dereferenceable(32) %25) #3
  %26 = load float, ptr %val, align 4
  call void @_ZN18OpenImageIO_v2_6_09ImageSpec9attributeENS_17basic_string_viewIcSt11char_traitsIcEEEf(ptr noundef nonnull align 8 dereferenceable(160) %m_spec40, ptr noundef %agg.tmp41, float noundef %26)
  br label %if.end42

if.end42:                                         ; preds = %if.else, %if.then36
  br label %if.end47

if.else43:                                        ; preds = %lor.lhs.false29
  %m_spec44 = getelementptr inbounds %"class.OpenImageIO_v2_6_0::ImageInput", ptr %this1, i32 0, i32 1
  %27 = load ptr, ptr %keyname.addr, align 8
  call void @_ZN18OpenImageIO_v2_6_017basic_string_viewIcSt11char_traitsIcEEC2ERKNSt7__cxx1112basic_stringIcS2_SaIcEEE(ptr noundef nonnull align 8 dereferenceable(16) %agg.tmp45, ptr noundef nonnull align 8 dereferenceable(32) %27) #3
  %28 = load ptr, ptr %value.addr, align 8
  call void @_ZN18OpenImageIO_v2_6_017basic_string_viewIcSt11char_traitsIcEEC2ERKNSt7__cxx1112basic_stringIcS2_SaIcEEE(ptr noundef nonnull align 8 dereferenceable(16) %agg.tmp46, ptr noundef nonnull align 8 dereferenceable(32) %28) #3
  call void @_ZN18OpenImageIO_v2_6_09ImageSpec9attributeENS_17basic_string_viewIcSt11char_traitsIcEEES4_(ptr noundef nonnull align 8 dereferenceable(160) %m_spec44, ptr noundef %agg.tmp45, ptr noundef %agg.tmp46)
  br label %if.end47

if.end47:                                         ; preds = %if.else43, %if.end42, %if.then11, %if.then
  ret void
}