; Function Attrs: mustprogress uwtable
define hidden void @_ZN18OpenImageIO_v2_6_09FitsInput11add_to_specERKNSt7__cxx1112basic_stringIcSt11char_traitsIcESaIcEEES8_(ptr noundef nonnull align 8 dereferenceable(480) %this, ptr noundef nonnull align 8 dereferenceable(32) %keyname, ptr noundef nonnull align 8 dereferenceable(32) %value) local_unnamed_addr #6 align 2 {
entry:
  %agg.tmp = alloca %"class.OpenImageIO_v2_6_0::basic_string_view", align 8
  %agg.tmp12 = alloca %"class.OpenImageIO_v2_6_0::basic_string_view", align 8
  %agg.tmp38 = alloca %"class.OpenImageIO_v2_6_0::basic_string_view", align 8
  %agg.tmp41 = alloca %"class.OpenImageIO_v2_6_0::basic_string_view", align 8
  %agg.tmp45 = alloca %"class.OpenImageIO_v2_6_0::basic_string_view", align 8
  %agg.tmp46 = alloca %"class.OpenImageIO_v2_6_0::basic_string_view", align 8
  %call = tail call noundef i64 @_ZNKSt7__cxx1112basic_stringIcSt11char_traitsIcESaIcEE4sizeEv(ptr noundef nonnull align 8 dereferenceable(32) %keyname) #22
  %tobool.not = icmp eq i64 %call, 0
  br i1 %tobool.not, label %if.end47, label %lor.lhs.false

lor.lhs.false:                                    ; preds = %entry
  %call2 = tail call noundef i64 @_ZNKSt7__cxx1112basic_stringIcSt11char_traitsIcESaIcEE4sizeEv(ptr noundef nonnull align 8 dereferenceable(32) %value) #22
  %tobool3.not = icmp eq i64 %call2, 0
  br i1 %tobool3.not, label %if.end47, label %if.end

if.end:                                           ; preds = %lor.lhs.false
  %call.i = tail call noundef i32 @_ZNKSt7__cxx1112basic_stringIcSt11char_traitsIcESaIcEE7compareEPKc(ptr noundef nonnull align 8 dereferenceable(32) %keyname, ptr noundef nonnull @.str.9) #22
  %cmp.i = icmp eq i32 %call.i, 0
  br i1 %cmp.i, label %if.then11, label %lor.lhs.false5

lor.lhs.false5:                                   ; preds = %if.end
  %call.i19 = tail call noundef i32 @_ZNKSt7__cxx1112basic_stringIcSt11char_traitsIcESaIcEE7compareEPKc(ptr noundef nonnull align 8 dereferenceable(32) %keyname, ptr noundef nonnull @.str.10) #22
  %cmp.i20 = icmp eq i32 %call.i19, 0
  br i1 %cmp.i20, label %if.then11, label %lor.rhs

lor.rhs:                                          ; preds = %lor.lhs.false5
  %call.i21 = tail call noundef i32 @_ZNKSt7__cxx1112basic_stringIcSt11char_traitsIcESaIcEE7compareEPKc(ptr noundef nonnull align 8 dereferenceable(32) %keyname, ptr noundef nonnull @.str.11) #22
  %cmp.i22 = icmp eq i32 %call.i21, 0
  br i1 %cmp.i22, label %if.then11, label %lor.lhs.false9

lor.lhs.false9:                                   ; preds = %lor.rhs
  %call.i23 = tail call noundef i32 @_ZNKSt7__cxx1112basic_stringIcSt11char_traitsIcESaIcEE7compareEPKc(ptr noundef nonnull align 8 dereferenceable(32) %keyname, ptr noundef nonnull @.str.18) #22
  %cmp.i24 = icmp eq i32 %call.i23, 0
  br i1 %cmp.i24, label %if.then11, label %if.end13

if.then11:                                        ; preds = %lor.lhs.false5, %if.end, %lor.lhs.false9, %lor.rhs
  %m_spec = getelementptr inbounds i8, ptr %this, i64 8
  %call.i25 = tail call noundef ptr @_ZNKSt7__cxx1112basic_stringIcSt11char_traitsIcESaIcEE4dataEv(ptr noundef nonnull align 8 dereferenceable(32) %keyname) #22
  store ptr %call.i25, ptr %agg.tmp, align 8
  %m_len.i = getelementptr inbounds i8, ptr %agg.tmp, i64 8
  %call2.i = tail call noundef i64 @_ZNKSt7__cxx1112basic_stringIcSt11char_traitsIcESaIcEE4sizeEv(ptr noundef nonnull align 8 dereferenceable(32) %keyname) #22
  store i64 %call2.i, ptr %m_len.i, align 8
  %call.i26 = tail call noundef ptr @_ZNKSt7__cxx1112basic_stringIcSt11char_traitsIcESaIcEE4dataEv(ptr noundef nonnull align 8 dereferenceable(32) %value) #22
  store ptr %call.i26, ptr %agg.tmp12, align 8
  %m_len.i27 = getelementptr inbounds i8, ptr %agg.tmp12, i64 8
  %call2.i28 = tail call noundef i64 @_ZNKSt7__cxx1112basic_stringIcSt11char_traitsIcESaIcEE4sizeEv(ptr noundef nonnull align 8 dereferenceable(32) %value) #22
  store i64 %call2.i28, ptr %m_len.i27, align 8
  call void @_ZN18OpenImageIO_v2_6_09ImageSpec9attributeENS_17basic_string_viewIcSt11char_traitsIcEEES4_(ptr noundef nonnull align 8 dereferenceable(160) %m_spec, ptr noundef nonnull %agg.tmp, ptr noundef nonnull %agg.tmp12)
  br label %if.end47

if.end13:                                         ; preds = %lor.lhs.false9
  %call14 = tail call noundef nonnull align 1 dereferenceable(1) ptr @_ZNKSt7__cxx1112basic_stringIcSt11char_traitsIcESaIcEEixEm(ptr noundef nonnull align 8 dereferenceable(32) %value, i64 noundef 0) #22
  %0 = load i8, ptr %call14, align 1
  %cmp = icmp eq i8 %0, 43
  br i1 %cmp, label %lor.end23, label %lor.lhs.false15

lor.lhs.false15:                                  ; preds = %if.end13
  %call16 = tail call noundef nonnull align 1 dereferenceable(1) ptr @_ZNKSt7__cxx1112basic_stringIcSt11char_traitsIcESaIcEEixEm(ptr noundef nonnull align 8 dereferenceable(32) %value, i64 noundef 0) #22
  %1 = load i8, ptr %call16, align 1
  %cmp18 = icmp eq i8 %1, 45
  br i1 %cmp18, label %lor.end23, label %lor.rhs19

lor.rhs19:                                        ; preds = %lor.lhs.false15
  %call20 = tail call noundef nonnull align 1 dereferenceable(1) ptr @_ZNKSt7__cxx1112basic_stringIcSt11char_traitsIcESaIcEEixEm(ptr noundef nonnull align 8 dereferenceable(32) %value, i64 noundef 0) #22
  %2 = load i8, ptr %call20, align 1
  %cmp22 = icmp eq i8 %2, 46
  br label %lor.end23

lor.end23:                                        ; preds = %lor.rhs19, %lor.lhs.false15, %if.end13
  %3 = phi i1 [ true, %lor.lhs.false15 ], [ true, %if.end13 ], [ %cmp22, %lor.rhs19 ]
  %call25 = tail call noundef nonnull align 1 dereferenceable(1) ptr @_ZNKSt7__cxx1112basic_stringIcSt11char_traitsIcESaIcEEixEm(ptr noundef nonnull align 8 dereferenceable(32) %value, i64 noundef 0) #22
  %4 = load i8, ptr %call25, align 1
  %conv26 = sext i8 %4 to i32
  %isdigittmp = add nsw i32 %conv26, -48
  %isdigit = icmp ult i32 %isdigittmp, 10
  %brmerge = select i1 %isdigit, i1 true, i1 %3
  br i1 %brmerge, label %if.then31, label %if.else43

if.then31:                                        ; preds = %lor.end23
  %call32 = tail call noundef float @_ZN18OpenImageIO_v2_6_07Strutil4stofERKNSt7__cxx1112basic_stringIcSt11char_traitsIcESaIcEEEPm(ptr noundef nonnull align 8 dereferenceable(32) %value, ptr noundef null)
  %conv33 = fptosi float %call32 to i32
  %conv34 = sitofp i32 %conv33 to float
  %cmp35 = fcmp oeq float %call32, %conv34
  %m_spec37 = getelementptr inbounds i8, ptr %this, i64 8
  %call.i29 = tail call noundef ptr @_ZNKSt7__cxx1112basic_stringIcSt11char_traitsIcESaIcEE4dataEv(ptr noundef nonnull align 8 dereferenceable(32) %keyname) #22
  br i1 %cmp35, label %if.then36, label %if.else

if.then36:                                        ; preds = %if.then31
  store ptr %call.i29, ptr %agg.tmp38, align 8
  %m_len.i30 = getelementptr inbounds i8, ptr %agg.tmp38, i64 8
  %call2.i31 = tail call noundef i64 @_ZNKSt7__cxx1112basic_stringIcSt11char_traitsIcESaIcEE4sizeEv(ptr noundef nonnull align 8 dereferenceable(32) %keyname) #22
  store i64 %call2.i31, ptr %m_len.i30, align 8
  call void @_ZN18OpenImageIO_v2_6_09ImageSpec9attributeENS_17basic_string_viewIcSt11char_traitsIcEEEi(ptr noundef nonnull align 8 dereferenceable(160) %m_spec37, ptr noundef nonnull %agg.tmp38, i32 noundef %conv33)
  br label %if.end47

if.else:                                          ; preds = %if.then31
  store ptr %call.i29, ptr %agg.tmp41, align 8
  %m_len.i33 = getelementptr inbounds i8, ptr %agg.tmp41, i64 8
  %call2.i34 = tail call noundef i64 @_ZNKSt7__cxx1112basic_stringIcSt11char_traitsIcESaIcEE4sizeEv(ptr noundef nonnull align 8 dereferenceable(32) %keyname) #22
  store i64 %call2.i34, ptr %m_len.i33, align 8
  call void @_ZN18OpenImageIO_v2_6_09ImageSpec9attributeENS_17basic_string_viewIcSt11char_traitsIcEEEf(ptr noundef nonnull align 8 dereferenceable(160) %m_spec37, ptr noundef nonnull %agg.tmp41, float noundef %call32)
  br label %if.end47

if.else43:                                        ; preds = %lor.end23
  %m_spec44 = getelementptr inbounds i8, ptr %this, i64 8
  %call.i35 = tail call noundef ptr @_ZNKSt7__cxx1112basic_stringIcSt11char_traitsIcESaIcEE4dataEv(ptr noundef nonnull align 8 dereferenceable(32) %keyname) #22
  store ptr %call.i35, ptr %agg.tmp45, align 8
  %m_len.i36 = getelementptr inbounds i8, ptr %agg.tmp45, i64 8
  %call2.i37 = tail call noundef i64 @_ZNKSt7__cxx1112basic_stringIcSt11char_traitsIcESaIcEE4sizeEv(ptr noundef nonnull align 8 dereferenceable(32) %keyname) #22
  store i64 %call2.i37, ptr %m_len.i36, align 8
  %call.i38 = tail call noundef ptr @_ZNKSt7__cxx1112basic_stringIcSt11char_traitsIcESaIcEE4dataEv(ptr noundef nonnull align 8 dereferenceable(32) %value) #22
  store ptr %call.i38, ptr %agg.tmp46, align 8
  %m_len.i39 = getelementptr inbounds i8, ptr %agg.tmp46, i64 8
  %call2.i40 = tail call noundef i64 @_ZNKSt7__cxx1112basic_stringIcSt11char_traitsIcESaIcEE4sizeEv(ptr noundef nonnull align 8 dereferenceable(32) %value) #22
  store i64 %call2.i40, ptr %m_len.i39, align 8
  call void @_ZN18OpenImageIO_v2_6_09ImageSpec9attributeENS_17basic_string_viewIcSt11char_traitsIcEEES4_(ptr noundef nonnull align 8 dereferenceable(160) %m_spec44, ptr noundef nonnull %agg.tmp45, ptr noundef nonnull %agg.tmp46)
  br label %if.end47

if.end47:                                         ; preds = %if.then36, %if.else, %entry, %lor.lhs.false, %if.else43, %if.then11
  ret void
}